; Function Attrs: mustprogress uwtable
define hidden noundef ptr @_ZN6google8protobuf2io19EpsCopyOutputStream18WriteStringOutlineEjRKNSt7__cxx1112basic_stringIcSt11char_traitsIcESaIcEEEPh(ptr noundef nonnull align 8 dereferenceable(59) %0, i32 noundef %1, ptr noundef nonnull readonly align 8 captures(none) dereferenceable(32) %2, ptr noundef %3) local_unnamed_addr #4 align 2 personality ptr @__gxx_personality_v0 {
  %5 = load ptr, ptr %0, align 8, !tbaa !57
  %.not.i = icmp ult ptr %3, %5
  br i1 %.not.i, label %_ZN6google8protobuf2io19EpsCopyOutputStream11EnsureSpaceEPh.exit, label %6, !prof !26

6:                                                ; preds = %4
  %7 = tail call noundef ptr @_ZN6google8protobuf2io19EpsCopyOutputStream19EnsureSpaceFallbackEPh(ptr noundef nonnull align 8 dereferenceable(59) %0, ptr noundef %3)
  br label %_ZN6google8protobuf2io19EpsCopyOutputStream11EnsureSpaceEPh.exit

_ZN6google8protobuf2io19EpsCopyOutputStream11EnsureSpaceEPh.exit: ; preds = %4, %6
  %.0.i9 = phi ptr [ %7, %6 ], [ %3, %4 ]
  %8 = getelementptr inbounds nuw i8, ptr %2, i64 8
  %9 = load i64, ptr %8, align 8, !tbaa !40
  %10 = trunc i64 %9 to i32
  %11 = shl i32 %1, 3
  %12 = trunc i32 %11 to i8
  %13 = or disjoint i8 %12, 2
  store i8 %13, ptr %.0.i9, align 1, !tbaa !27
  %14 = icmp ult i32 %11, 128
  br i1 %14, label %15, label %17

15:                                               ; preds = %_ZN6google8protobuf2io19EpsCopyOutputStream11EnsureSpaceEPh.exit
  %16 = getelementptr inbounds nuw i8, ptr %.0.i9, i64 1
  br label %_ZN6google8protobuf2io19EpsCopyOutputStream12UnsafeVarintIjEEPhT_S4_.exit

17:                                               ; preds = %_ZN6google8protobuf2io19EpsCopyOutputStream11EnsureSpaceEPh.exit
  %18 = or i8 %12, -126
  store i8 %18, ptr %.0.i9, align 1, !tbaa !27
  %19 = lshr i32 %11, 7
  %20 = trunc i32 %19 to i8
  %21 = getelementptr inbounds nuw i8, ptr %.0.i9, i64 1
  store i8 %20, ptr %21, align 1, !tbaa !27
  %22 = icmp ult i32 %11, 16384
  %23 = getelementptr inbounds nuw i8, ptr %.0.i9, i64 2
  br i1 %22, label %_ZN6google8protobuf2io19EpsCopyOutputStream12UnsafeVarintIjEEPhT_S4_.exit, label %.preheader

.preheader:                                       ; preds = %17
  %scevgep = getelementptr i8, ptr %.0.i9, i64 1
  %load_initial = load i8, ptr %scevgep, align 1
  br label %24

24:                                               ; preds = %.preheader, %24
  %store_forwarded = phi i8 [ %load_initial, %.preheader ], [ %28, %24 ]
  %.018.i = phi i32 [ %19, %.preheader ], [ %27, %24 ]
  %.0.i8 = phi ptr [ %23, %.preheader ], [ %29, %24 ]
  %25 = getelementptr inbounds i8, ptr %.0.i8, i64 -1
  %26 = or i8 %store_forwarded, -128
  store i8 %26, ptr %25, align 1, !tbaa !27
  %27 = lshr i32 %.018.i, 7
  %28 = trunc i32 %27 to i8
  store i8 %28, ptr %.0.i8, align 1, !tbaa !27
  %29 = getelementptr inbounds nuw i8, ptr %.0.i8, i64 1
  %30 = icmp samesign ugt i32 %.018.i, 16383
  br i1 %30, label %24, label %_ZN6google8protobuf2io19EpsCopyOutputStream12UnsafeVarintIjEEPhT_S4_.exit, !llvm.loop !67

_ZN6google8protobuf2io19EpsCopyOutputStream12UnsafeVarintIjEEPhT_S4_.exit: ; preds = %24, %17, %15
  %.019.i = phi ptr [ %16, %15 ], [ %23, %17 ], [ %29, %24 ]
  %31 = icmp ugt i32 %10, 127
  br i1 %31, label %.lr.ph, label %_ZN6google8protobuf2io19EpsCopyOutputStream15UnsafeWriteSizeEjPh.exit, !prof !68

.lr.ph:                                           ; preds = %_ZN6google8protobuf2io19EpsCopyOutputStream12UnsafeVarintIjEEPhT_S4_.exit, %.lr.ph
  %.0.i12 = phi ptr [ %35, %.lr.ph ], [ %.019.i, %_ZN6google8protobuf2io19EpsCopyOutputStream12UnsafeVarintIjEEPhT_S4_.exit ]
  %.07.i11 = phi i32 [ %34, %.lr.ph ], [ %10, %_ZN6google8protobuf2io19EpsCopyOutputStream12UnsafeVarintIjEEPhT_S4_.exit ]
  %32 = trunc i32 %.07.i11 to i8
  %33 = or i8 %32, -128
  store i8 %33, ptr %.0.i12, align 1, !tbaa !27
  %34 = lshr i32 %.07.i11, 7
  %35 = getelementptr inbounds nuw i8, ptr %.0.i12, i64 1
  %36 = icmp ugt i32 %.07.i11, 16383
  br i1 %36, label %.lr.ph, label %_ZN6google8protobuf2io19EpsCopyOutputStream15UnsafeWriteSizeEjPh.exit, !prof !69, !llvm.loop !70

_ZN6google8protobuf2io19EpsCopyOutputStream15UnsafeWriteSizeEjPh.exit: ; preds = %.lr.ph, %_ZN6google8protobuf2io19EpsCopyOutputStream12UnsafeVarintIjEEPhT_S4_.exit
  %.07.i.lcssa = phi i32 [ %10, %_ZN6google8protobuf2io19EpsCopyOutputStream12UnsafeVarintIjEEPhT_S4_.exit ], [ %34, %.lr.ph ]
  %.0.i.lcssa = phi ptr [ %.019.i, %_ZN6google8protobuf2io19EpsCopyOutputStream12UnsafeVarintIjEEPhT_S4_.exit ], [ %35, %.lr.ph ]
  %37 = trunc nuw nsw i32 %.07.i.lcssa to i8
  %38 = getelementptr inbounds nuw i8, ptr %.0.i.lcssa, i64 1
  store i8 %37, ptr %.0.i.lcssa, align 1, !tbaa !27
  %39 = load ptr, ptr %2, align 8, !tbaa !36
  %40 = load ptr, ptr %0, align 8, !tbaa !57
  %41 = ptrtoint ptr %40 to i64
  %42 = ptrtoint ptr %38 to i64
  %43 = sub i64 %41, %42
  %sext = shl i64 %9, 32
  %44 = ashr exact i64 %sext, 32
  %45 = icmp slt i64 %43, %44
  br i1 %45, label %46, label %48, !prof !59

46:                                               ; preds = %_ZN6google8protobuf2io19EpsCopyOutputStream15UnsafeWriteSizeEjPh.exit
  %47 = tail call noundef ptr @_ZN6google8protobuf2io19EpsCopyOutputStream16WriteRawFallbackEPKviPh(ptr noundef nonnull align 8 dereferenceable(59) %0, ptr noundef %39, i32 noundef %10, ptr noundef nonnull %38)
  br label %_ZN6google8protobuf2io19EpsCopyOutputStream8WriteRawEPKviPh.exit

48:                                               ; preds = %_ZN6google8protobuf2io19EpsCopyOutputStream15UnsafeWriteSizeEjPh.exit
  tail call void @llvm.memcpy.p0.p0.i64(ptr nonnull align 1 %38, ptr align 1 %39, i64 %44, i1 false)
  %49 = getelementptr inbounds i8, ptr %38, i64 %44
  br label %_ZN6google8protobuf2io19EpsCopyOutputStream8WriteRawEPKviPh.exit

_ZN6google8protobuf2io19EpsCopyOutputStream8WriteRawEPKviPh.exit: ; preds = %46, %48
  %.0.i10 = phi ptr [ %47, %46 ], [ %49, %48 ]
  ret ptr %.0.i10
}